; Function Attrs: mustprogress uwtable
define internal noundef i64 @_ZNK7rocksdb12experimental12_GLOBAL__N_133CategoryScopeFilterWrapperBuilder16GetEncodedLengthEv(ptr noundef nonnull readonly align 8 captures(none) dereferenceable(24) %0) unnamed_addr #4 align 2 {
  %2 = getelementptr inbounds nuw i8, ptr %0, i64 16
  %.val4 = load ptr, ptr %2, align 8, !tbaa !995
  %3 = load ptr, ptr %.val4, align 8, !tbaa !21
  %4 = getelementptr inbounds nuw i8, ptr %3, i64 32
  %5 = load ptr, ptr %4, align 8
  %6 = tail call noundef i64 %5(ptr noundef nonnull align 8 dereferenceable(8) %.val4)
  %7 = icmp eq i64 %6, 0
  br i1 %7, label %17, label %8

8:                                                ; preds = %1
  %9 = getelementptr inbounds nuw i8, ptr %0, i64 8
  %.val = load i64, ptr %9, align 8, !tbaa !129
  %10 = icmp ugt i64 %.val, 127
  br i1 %10, label %.lr.ph.i, label %_ZN7rocksdb12VarintLengthEm.exit

.lr.ph.i:                                         ; preds = %8, %.lr.ph.i
  %.06.i = phi i32 [ %12, %.lr.ph.i ], [ 1, %8 ]
  %.045.i = phi i64 [ %11, %.lr.ph.i ], [ %.val, %8 ]
  %11 = lshr i64 %.045.i, 7
  %12 = add nuw nsw i32 %.06.i, 1
  %13 = icmp ugt i64 %.045.i, 16383
  br i1 %13, label %.lr.ph.i, label %_ZN7rocksdb12VarintLengthEm.exit.loopexit, !llvm.loop !1021

_ZN7rocksdb12VarintLengthEm.exit.loopexit:        ; preds = %.lr.ph.i
  %14 = add nuw nsw i32 %.06.i, 3
  %15 = zext nneg i32 %14 to i64
  br label %_ZN7rocksdb12VarintLengthEm.exit

_ZN7rocksdb12VarintLengthEm.exit:                 ; preds = %_ZN7rocksdb12VarintLengthEm.exit.loopexit, %8
  %.0.lcssa.i = phi i64 [ 3, %8 ], [ %15, %_ZN7rocksdb12VarintLengthEm.exit.loopexit ]
  %16 = add i64 %6, %.0.lcssa.i
  br label %17

17:                                               ; preds = %1, %_ZN7rocksdb12VarintLengthEm.exit
  %.0 = phi i64 [ %16, %_ZN7rocksdb12VarintLengthEm.exit ], [ 0, %1 ]
  ret i64 %.0
}